target datalayout = "e-m:e-p270:32:32-p271:32:32-p272:64:64-i64:64-i128:128-f80:128-n8:16:32:64-S128"
target triple = "x86_64-unknown-linux-gnu"

%"class.std::__cxx11::basic_string" = type { %"struct.std::__cxx11::basic_string<char>::_Alloc_hider", i64, %union.anon }
%"struct.std::__cxx11::basic_string<char>::_Alloc_hider" = type { ptr }
%union.anon = type { i64, [8 x i8] }
%"class.net::QuicConfigValue" = type { ptr, i32, i32 }
%"class.net::QuicNegotiableValue" = type <{ %"class.net::QuicConfigValue", i8, [7 x i8] }>
%"class.net::QuicNegotiableValue.base" = type <{ %"class.net::QuicConfigValue", i8 }>
%"class.net::QuicNegotiableTag" = type <{ %"class.net::QuicNegotiableValue.base", [3 x i8], i32, %"class.std::vector", i32, [4 x i8] }>
%"class.std::vector" = type { %"struct.std::_Vector_base" }
%"struct.std::_Vector_base" = type { %"struct.std::_Vector_base<unsigned int, std::allocator<unsigned int>>::_Vector_impl" }
%"struct.std::_Vector_base<unsigned int, std::allocator<unsigned int>>::_Vector_impl" = type { %"struct.std::_Vector_base<unsigned int, std::allocator<unsigned int>>::_Vector_impl_data" }
%"struct.std::_Vector_base<unsigned int, std::allocator<unsigned int>>::_Vector_impl_data" = type { ptr, ptr, ptr }

@.str.4 = private unnamed_addr constant [9 x i8] c"Invalid \00", align 1
@.str.5 = private unnamed_addr constant [13 x i8] c"Unsupported \00", align 1

; Function Attrs: mustprogress nounwind uwtable
define linkonce_odr dso_local void @_ZN3net19QuicNegotiableValue14set_negotiatedEb(ptr noundef nonnull align 8 dereferenceable(17) %this, i1 noundef zeroext %negotiated) #3 comdat align 2 {
entry:
  %this.addr = alloca ptr, align 8
  %negotiated.addr = alloca i8, align 1
  store ptr %this, ptr %this.addr, align 8
  %frombool = zext i1 %negotiated to i8
  store i8 %frombool, ptr %negotiated.addr, align 1
  %this1 = load ptr, ptr %this.addr, align 8
  %0 = load i8, ptr %negotiated.addr, align 1
  %tobool = trunc i8 %0 to i1
  %negotiated_ = getelementptr inbounds %"class.net::QuicNegotiableValue", ptr %this1, i32 0, i32 1
  %frombool2 = zext i1 %tobool to i8
  store i8 %frombool2, ptr %negotiated_, align 8
  ret void
}

; Function Attrs: mustprogress uwtable
define linkonce_odr dso_local void @_ZStplIcSt11char_traitsIcESaIcEENSt7__cxx1112basic_stringIT_T0_T1_EEPKS5_OS8_(ptr noalias sret(%"class.std::__cxx11::basic_string") align 8 %agg.result, ptr noundef %__lhs, ptr noundef nonnull align 8 dereferenceable(32) %__rhs) #0 comdat {
entry:
  %result.ptr = alloca ptr, align 8
  %__lhs.addr = alloca ptr, align 8
  %__rhs.addr = alloca ptr, align 8
  store ptr %agg.result, ptr %result.ptr, align 8
  store ptr %__lhs, ptr %__lhs.addr, align 8
  store ptr %__rhs, ptr %__rhs.addr, align 8
  %0 = load ptr, ptr %__rhs.addr, align 8
  %1 = load ptr, ptr %__lhs.addr, align 8
  %call = call noundef nonnull align 8 dereferenceable(32) ptr @_ZNSt7__cxx1112basic_stringIcSt11char_traitsIcESaIcEE6insertEmPKc(ptr noundef nonnull align 8 dereferenceable(32) %0, i64 noundef 0, ptr noundef %1)
  call void @_ZNSt7__cxx1112basic_stringIcSt11char_traitsIcESaIcEEC1EOS4_(ptr noundef nonnull align 8 dereferenceable(32) %agg.result, ptr noundef nonnull align 8 dereferenceable(32) %call) #11
  ret void
}

; Function Attrs: mustprogress uwtable
define dso_local noundef i32 @_ZN3net17QuicNegotiableTag16ProcessPeerHelloERKNS_22CryptoHandshakeMessageENS_9HelloTypeEPNSt7__cxx1112basic_stringIcSt11char_traitsIcESaIcEEE(ptr noundef nonnull align 8 dereferenceable(52) %this, ptr noundef nonnull align 8 dereferenceable(72) %peer_hello, i32 noundef %hello_type, ptr noundef %error_details) unnamed_addr #0 align 2 personality ptr @__gxx_personality_v0 {
entry:
  %retval = alloca i32, align 4
  %this.addr = alloca ptr, align 8
  %peer_hello.addr = alloca ptr, align 8
  %hello_type.addr = alloca i32, align 4
  %error_details.addr = alloca ptr, align 8
  %received_tags = alloca ptr, align 8
  %received_tags_length = alloca i64, align 8
  %error = alloca i32, align 4
  %ref.tmp = alloca %"class.std::__cxx11::basic_string", align 8
  %ref.tmp7 = alloca %"class.std::__cxx11::basic_string", align 8
  %exn.slot = alloca ptr, align 8
  %ehselector.slot = alloca i32, align 4
  %negotiated_tag = alloca i32, align 4
  %ref.tmp13 = alloca %"class.std::__cxx11::basic_string", align 8
  %ref.tmp14 = alloca %"class.std::__cxx11::basic_string", align 8
  store ptr %this, ptr %this.addr, align 8
  store ptr %peer_hello, ptr %peer_hello.addr, align 8
  store i32 %hello_type, ptr %hello_type.addr, align 4
  store ptr %error_details, ptr %error_details.addr, align 8
  %this1 = load ptr, ptr %this.addr, align 8
  %0 = load ptr, ptr %peer_hello.addr, align 8
  %1 = load ptr, ptr %error_details.addr, align 8
  %call = call noundef i32 @_ZNK3net17QuicNegotiableTag10ReadVectorERKNS_22CryptoHandshakeMessageEPPKjPmPNSt7__cxx1112basic_stringIcSt11char_traitsIcESaIcEEE(ptr noundef nonnull align 8 dereferenceable(52) %this1, ptr noundef nonnull align 8 dereferenceable(72) %0, ptr noundef %received_tags, ptr noundef %received_tags_length, ptr noundef %1)
  store i32 %call, ptr %error, align 4
  %2 = load i32, ptr %error, align 4
  %cmp = icmp ne i32 %2, 0
  br i1 %cmp, label %if.then, label %if.end

if.then:                                          ; preds = %entry
  %3 = load i32, ptr %error, align 4
  store i32 %3, ptr %retval, align 4
  br label %return

if.end:                                           ; preds = %entry
  %4 = load i32, ptr %hello_type.addr, align 4
  %cmp2 = icmp eq i32 %4, 1
  br i1 %cmp2, label %if.then3, label %if.else

if.then3:                                         ; preds = %if.end
  %5 = load i64, ptr %received_tags_length, align 8
  %cmp4 = icmp ne i64 %5, 1
  br i1 %cmp4, label %if.then6, label %lor.lhs.false

lor.lhs.false:                                    ; preds = %if.then3
  %possible_values_ = getelementptr inbounds %"class.net::QuicNegotiableTag", ptr %this1, i32 0, i32 3
  %6 = load ptr, ptr %received_tags, align 8
  %7 = load i32, ptr %6, align 4
  %call5 = call noundef zeroext i1 @_ZN3net15ContainsQuicTagERKSt6vectorIjSaIjEEj(ptr noundef nonnull align 8 dereferenceable(24) %possible_values_, i32 noundef %7)
  br i1 %call5, label %if.end9, label %if.then6

if.then6:                                         ; preds = %lor.lhs.false, %if.then3
  %tag_ = getelementptr inbounds %"class.net::QuicConfigValue", ptr %this1, i32 0, i32 1
  %8 = load i32, ptr %tag_, align 8
  call void @_ZN3net9QuicUtils11TagToStringB5cxx11Ej(ptr sret(%"class.std::__cxx11::basic_string") align 8 %ref.tmp7, i32 noundef %8)
  invoke void @_ZStplIcSt11char_traitsIcESaIcEENSt7__cxx1112basic_stringIT_T0_T1_EEPKS5_OS8_(ptr sret(%"class.std::__cxx11::basic_string") align 8 %ref.tmp, ptr noundef @.str.4, ptr noundef nonnull align 8 dereferenceable(32) %ref.tmp7)
          to label %invoke.cont unwind label %lpad

invoke.cont:                                      ; preds = %if.then6
  %9 = load ptr, ptr %error_details.addr, align 8
  %call8 = call noundef nonnull align 8 dereferenceable(32) ptr @_ZNSt7__cxx1112basic_stringIcSt11char_traitsIcESaIcEEaSEOS4_(ptr noundef nonnull align 8 dereferenceable(32) %9, ptr noundef nonnull align 8 dereferenceable(32) %ref.tmp) #11
  call void @_ZNSt7__cxx1112basic_stringIcSt11char_traitsIcESaIcEED1Ev(ptr noundef nonnull align 8 dereferenceable(32) %ref.tmp) #11
  call void @_ZNSt7__cxx1112basic_stringIcSt11char_traitsIcESaIcEED1Ev(ptr noundef nonnull align 8 dereferenceable(32) %ref.tmp7) #11
  store i32 23, ptr %retval, align 4
  br label %return

lpad:                                             ; preds = %if.then6
  %10 = landingpad { ptr, i32 }
          cleanup
  %11 = extractvalue { ptr, i32 } %10, 0
  store ptr %11, ptr %exn.slot, align 8
  %12 = extractvalue { ptr, i32 } %10, 1
  store i32 %12, ptr %ehselector.slot, align 4
  call void @_ZNSt7__cxx1112basic_stringIcSt11char_traitsIcESaIcEED1Ev(ptr noundef nonnull align 8 dereferenceable(32) %ref.tmp7) #11
  br label %eh.resume

if.end9:                                          ; preds = %lor.lhs.false
  %13 = load ptr, ptr %received_tags, align 8
  %14 = load i32, ptr %13, align 4
  %negotiated_tag_ = getelementptr inbounds %"class.net::QuicNegotiableTag", ptr %this1, i32 0, i32 2
  store i32 %14, ptr %negotiated_tag_, align 4
  br label %if.end21

if.else:                                          ; preds = %if.end
  %possible_values_10 = getelementptr inbounds %"class.net::QuicNegotiableTag", ptr %this1, i32 0, i32 3
  %15 = load ptr, ptr %received_tags, align 8
  %16 = load i64, ptr %received_tags_length, align 8
  %call11 = call noundef zeroext i1 @_ZN3net9QuicUtils13FindMutualTagERKSt6vectorIjSaIjEEPKjmNS0_8PriorityEPjPm(ptr noundef nonnull align 8 dereferenceable(24) %possible_values_10, ptr noundef %15, i64 noundef %16, i32 noundef 0, ptr noundef %negotiated_tag, ptr noundef null)
  br i1 %call11, label %if.end19, label %if.then12

if.then12:                                        ; preds = %if.else
  %tag_15 = getelementptr inbounds %"class.net::QuicConfigValue", ptr %this1, i32 0, i32 1
  %17 = load i32, ptr %tag_15, align 8
  call void @_ZN3net9QuicUtils11TagToStringB5cxx11Ej(ptr sret(%"class.std::__cxx11::basic_string") align 8 %ref.tmp14, i32 noundef %17)
  invoke void @_ZStplIcSt11char_traitsIcESaIcEENSt7__cxx1112basic_stringIT_T0_T1_EEPKS5_OS8_(ptr sret(%"class.std::__cxx11::basic_string") align 8 %ref.tmp13, ptr noundef @.str.5, ptr noundef nonnull align 8 dereferenceable(32) %ref.tmp14)
          to label %invoke.cont17 unwind label %lpad16

invoke.cont17:                                    ; preds = %if.then12
  %18 = load ptr, ptr %error_details.addr, align 8
  %call18 = call noundef nonnull align 8 dereferenceable(32) ptr @_ZNSt7__cxx1112basic_stringIcSt11char_traitsIcESaIcEEaSEOS4_(ptr noundef nonnull align 8 dereferenceable(32) %18, ptr noundef nonnull align 8 dereferenceable(32) %ref.tmp13) #11
  call void @_ZNSt7__cxx1112basic_stringIcSt11char_traitsIcESaIcEED1Ev(ptr noundef nonnull align 8 dereferenceable(32) %ref.tmp13) #11
  call void @_ZNSt7__cxx1112basic_stringIcSt11char_traitsIcESaIcEED1Ev(ptr noundef nonnull align 8 dereferenceable(32) %ref.tmp14) #11
  store i32 36, ptr %retval, align 4
  br label %return

lpad16:                                           ; preds = %if.then12
  %19 = landingpad { ptr, i32 }
          cleanup
  %20 = extractvalue { ptr, i32 } %19, 0
  store ptr %20, ptr %exn.slot, align 8
  %21 = extractvalue { ptr, i32 } %19, 1
  store i32 %21, ptr %ehselector.slot, align 4
  call void @_ZNSt7__cxx1112basic_stringIcSt11char_traitsIcESaIcEED1Ev(ptr noundef nonnull align 8 dereferenceable(32) %ref.tmp14) #11
  br label %eh.resume

if.end19:                                         ; preds = %if.else
  %22 = load i32, ptr %negotiated_tag, align 4
  %negotiated_tag_20 = getelementptr inbounds %"class.net::QuicNegotiableTag", ptr %this1, i32 0, i32 2
  store i32 %22, ptr %negotiated_tag_20, align 4
  br label %if.end21

if.end21:                                         ; preds = %if.end19, %if.end9
  call void @_ZN3net19QuicNegotiableValue14set_negotiatedEb(ptr noundef nonnull align 8 dereferenceable(17) %this1, i1 noundef zeroext true)
  store i32 0, ptr %retval, align 4
  br label %return

return:                                           ; preds = %if.end21, %invoke.cont17, %invoke.cont, %if.then
  %23 = load i32, ptr %retval, align 4
  ret i32 %23

eh.resume:                                        ; preds = %lpad16, %lpad
  %exn = load ptr, ptr %exn.slot, align 8
  %sel = load i32, ptr %ehselector.slot, align 4
  %lpad.val = insertvalue { ptr, i32 } poison, ptr %exn, 0
  %lpad.val22 = insertvalue { ptr, i32 } %lpad.val, i32 %sel, 1
  resume { ptr, i32 } %lpad.val22
}