; Function Attrs: mustprogress uwtable
define dso_local noundef i32 @_ZN3net17QuicNegotiableTag16ProcessPeerHelloERKNS_22CryptoHandshakeMessageENS_9HelloTypeEPNSt7__cxx1112basic_stringIcSt11char_traitsIcESaIcEEE(ptr noundef nonnull align 8 dereferenceable(52) %this, ptr noundef nonnull align 8 dereferenceable(72) %peer_hello, i32 noundef %hello_type, ptr noundef %error_details) unnamed_addr #0 align 2 personality ptr @__gxx_personality_v0 {
entry:
  %received_tags = alloca ptr, align 8
  %received_tags_length = alloca i64, align 8
  %ref.tmp = alloca %"class.std::__cxx11::basic_string", align 8
  %ref.tmp7 = alloca %"class.std::__cxx11::basic_string", align 8
  %negotiated_tag = alloca i32, align 4
  %ref.tmp13 = alloca %"class.std::__cxx11::basic_string", align 8
  %ref.tmp14 = alloca %"class.std::__cxx11::basic_string", align 8
  %call = call noundef i32 @_ZNK3net17QuicNegotiableTag10ReadVectorERKNS_22CryptoHandshakeMessageEPPKjPmPNSt7__cxx1112basic_stringIcSt11char_traitsIcESaIcEEE(ptr noundef nonnull align 8 dereferenceable(52) %this, ptr noundef nonnull align 8 dereferenceable(72) %peer_hello, ptr noundef nonnull %received_tags, ptr noundef nonnull %received_tags_length, ptr noundef %error_details)
  %cmp.not = icmp eq i32 %call, 0
  br i1 %cmp.not, label %if.end, label %return

if.end:                                           ; preds = %entry
  %cmp2 = icmp eq i32 %hello_type, 1
  br i1 %cmp2, label %if.then3, label %if.else

if.then3:                                         ; preds = %if.end
  %0 = load i64, ptr %received_tags_length, align 8
  %cmp4.not = icmp eq i64 %0, 1
  br i1 %cmp4.not, label %lor.lhs.false, label %if.then6

lor.lhs.false:                                    ; preds = %if.then3
  %possible_values_ = getelementptr inbounds i8, ptr %this, i64 24
  %1 = load ptr, ptr %received_tags, align 8
  %2 = load i32, ptr %1, align 4
  %call5 = call noundef zeroext i1 @_ZN3net15ContainsQuicTagERKSt6vectorIjSaIjEEj(ptr noundef nonnull align 8 dereferenceable(24) %possible_values_, i32 noundef %2)
  br i1 %call5, label %if.end9, label %if.then6

if.then6:                                         ; preds = %lor.lhs.false, %if.then3
  %tag_ = getelementptr inbounds i8, ptr %this, i64 8
  %3 = load i32, ptr %tag_, align 8
  call void @_ZN3net9QuicUtils11TagToStringB5cxx11Ej(ptr nonnull sret(%"class.std::__cxx11::basic_string") align 8 %ref.tmp7, i32 noundef %3)
  %call.i5 = invoke noundef nonnull align 8 dereferenceable(32) ptr @_ZNSt7__cxx1112basic_stringIcSt11char_traitsIcESaIcEE6insertEmPKc(ptr noundef nonnull align 8 dereferenceable(32) %ref.tmp7, i64 noundef 0, ptr noundef nonnull @.str.4)
          to label %invoke.cont unwind label %lpad

invoke.cont:                                      ; preds = %if.then6
  call void @_ZNSt7__cxx1112basic_stringIcSt11char_traitsIcESaIcEEC1EOS4_(ptr noundef nonnull align 8 dereferenceable(32) %ref.tmp, ptr noundef nonnull align 8 dereferenceable(32) %call.i5) #17
  %call8 = call noundef nonnull align 8 dereferenceable(32) ptr @_ZNSt7__cxx1112basic_stringIcSt11char_traitsIcESaIcEEaSEOS4_(ptr noundef nonnull align 8 dereferenceable(32) %error_details, ptr noundef nonnull align 8 dereferenceable(32) %ref.tmp) #17
  call void @_ZNSt7__cxx1112basic_stringIcSt11char_traitsIcESaIcEED1Ev(ptr noundef nonnull align 8 dereferenceable(32) %ref.tmp) #17
  call void @_ZNSt7__cxx1112basic_stringIcSt11char_traitsIcESaIcEED1Ev(ptr noundef nonnull align 8 dereferenceable(32) %ref.tmp7) #17
  br label %return

lpad:                                             ; preds = %if.then6
  %4 = landingpad { ptr, i32 }
          cleanup
  br label %eh.resume

if.end9:                                          ; preds = %lor.lhs.false
  %5 = load ptr, ptr %received_tags, align 8
  br label %if.end21

if.else:                                          ; preds = %if.end
  %possible_values_10 = getelementptr inbounds i8, ptr %this, i64 24
  %6 = load ptr, ptr %received_tags, align 8
  %7 = load i64, ptr %received_tags_length, align 8
  %call11 = call noundef zeroext i1 @_ZN3net9QuicUtils13FindMutualTagERKSt6vectorIjSaIjEEPKjmNS0_8PriorityEPjPm(ptr noundef nonnull align 8 dereferenceable(24) %possible_values_10, ptr noundef %6, i64 noundef %7, i32 noundef 0, ptr noundef nonnull %negotiated_tag, ptr noundef null)
  br i1 %call11, label %if.end21, label %if.then12

if.then12:                                        ; preds = %if.else
  %tag_15 = getelementptr inbounds i8, ptr %this, i64 8
  %8 = load i32, ptr %tag_15, align 8
  call void @_ZN3net9QuicUtils11TagToStringB5cxx11Ej(ptr nonnull sret(%"class.std::__cxx11::basic_string") align 8 %ref.tmp14, i32 noundef %8)
  %call.i6 = invoke noundef nonnull align 8 dereferenceable(32) ptr @_ZNSt7__cxx1112basic_stringIcSt11char_traitsIcESaIcEE6insertEmPKc(ptr noundef nonnull align 8 dereferenceable(32) %ref.tmp14, i64 noundef 0, ptr noundef nonnull @.str.5)
          to label %invoke.cont17 unwind label %lpad16

invoke.cont17:                                    ; preds = %if.then12
  call void @_ZNSt7__cxx1112basic_stringIcSt11char_traitsIcESaIcEEC1EOS4_(ptr noundef nonnull align 8 dereferenceable(32) %ref.tmp13, ptr noundef nonnull align 8 dereferenceable(32) %call.i6) #17
  %call18 = call noundef nonnull align 8 dereferenceable(32) ptr @_ZNSt7__cxx1112basic_stringIcSt11char_traitsIcESaIcEEaSEOS4_(ptr noundef nonnull align 8 dereferenceable(32) %error_details, ptr noundef nonnull align 8 dereferenceable(32) %ref.tmp13) #17
  call void @_ZNSt7__cxx1112basic_stringIcSt11char_traitsIcESaIcEED1Ev(ptr noundef nonnull align 8 dereferenceable(32) %ref.tmp13) #17
  call void @_ZNSt7__cxx1112basic_stringIcSt11char_traitsIcESaIcEED1Ev(ptr noundef nonnull align 8 dereferenceable(32) %ref.tmp14) #17
  br label %return

lpad16:                                           ; preds = %if.then12
  %9 = landingpad { ptr, i32 }
          cleanup
  br label %eh.resume

if.end21:                                         ; preds = %if.else, %if.end9
  %.sink.in = phi ptr [ %5, %if.end9 ], [ %negotiated_tag, %if.else ]
  %.sink = load i32, ptr %.sink.in, align 4
  %negotiated_tag_20 = getelementptr inbounds i8, ptr %this, i64 20
  store i32 %.sink, ptr %negotiated_tag_20, align 4
  %negotiated_.i = getelementptr inbounds i8, ptr %this, i64 16
  store i8 1, ptr %negotiated_.i, align 8
  br label %return

return:                                           ; preds = %entry, %if.end21, %invoke.cont17, %invoke.cont
  %retval.0 = phi i32 [ 23, %invoke.cont ], [ 0, %if.end21 ], [ 36, %invoke.cont17 ], [ %call, %entry ]
  ret i32 %retval.0

eh.resume:                                        ; preds = %lpad16, %lpad
  %ref.tmp14.sink = phi ptr [ %ref.tmp14, %lpad16 ], [ %ref.tmp7, %lpad ]
  %.pn = phi { ptr, i32 } [ %9, %lpad16 ], [ %4, %lpad ]
  call void @_ZNSt7__cxx1112basic_stringIcSt11char_traitsIcESaIcEED1Ev(ptr noundef nonnull align 8 dereferenceable(32) %ref.tmp14.sink) #17
  resume { ptr, i32 } %.pn
}